; ModuleID = '33/2087.c'
source_filename = "33/2087.c"
target datalayout = "e-m:e-p270:32:32-p271:32:32-p272:64:64-i64:64-f80:128-n8:16:32:64-S128"
target triple = "x86_64-pc-linux-gnu"

@.str = private unnamed_addr constant [3 x i8] c"%d\00", align 1
@.str.1 = private unnamed_addr constant [4 x i8] c"%s\0A\00", align 1

; Function Attrs: noinline nounwind uwtable
define dso_local i32 @main() #0 {
  %1 = alloca i32, align 4
  %2 = alloca i32, align 4
  %3 = alloca i32, align 4
  %4 = alloca i8*, align 8
  %5 = alloca i64, align 8
  %6 = alloca i64, align 8
  %7 = alloca i32, align 4
  store i32 0, i32* %1, align 4
  %8 = call i32 (i8*, ...) @__isoc99_scanf(i8* getelementptr inbounds ([3 x i8], [3 x i8]* @.str, i64 0, i64 0), i32* %2)
  %9 = load i32, i32* %2, align 4
  %10 = zext i32 %9 to i64
  %11 = call i8* @llvm.stacksave()
  store i8* %11, i8** %4, align 8
  %12 = alloca i32, i64 %10, align 16
  store i64 %10, i64* %5, align 8
  %13 = load i32, i32* %2, align 4
  %14 = zext i32 %13 to i64
  %15 = alloca [300 x i8], i64 %14, align 16
  store i64 %14, i64* %6, align 8
  store i32 0, i32* %3, align 4
  br label %16

16:                                               ; preds = %26, %0
  %17 = load i32, i32* %3, align 4
  %18 = load i32, i32* %2, align 4
  %19 = icmp slt i32 %17, %18
  br i1 %19, label %20, label %29

20:                                               ; preds = %16
  %21 = load i32, i32* %3, align 4
  %22 = sext i32 %21 to i64
  %23 = getelementptr inbounds [300 x i8], [300 x i8]* %15, i64 %22
  %24 = getelementptr inbounds [300 x i8], [300 x i8]* %23, i64 0, i64 0
  %25 = call i32 (i8*, ...) @__isoc99_scanf(i8* getelementptr inbounds ([4 x i8], [4 x i8]* @.str.1, i64 0, i64 0), i8* %24)
  br label %26

26:                                               ; preds = %20
  %27 = load i32, i32* %3, align 4
  %28 = add nsw i32 %27, 1
  store i32 %28, i32* %3, align 4
  br label %16

29:                                               ; preds = %16
  store i32 0, i32* %3, align 4
  br label %30

30:                                               ; preds = %44, %29
  %31 = load i32, i32* %3, align 4
  %32 = load i32, i32* %2, align 4
  %33 = icmp slt i32 %31, %32
  br i1 %33, label %34, label %47

34:                                               ; preds = %30
  %35 = load i32, i32* %3, align 4
  %36 = sext i32 %35 to i64
  %37 = getelementptr inbounds [300 x i8], [300 x i8]* %15, i64 %36
  %38 = getelementptr inbounds [300 x i8], [300 x i8]* %37, i64 0, i64 0
  %39 = call i64 @strlen(i8* %38) #4
  %40 = trunc i64 %39 to i32
  %41 = load i32, i32* %3, align 4
  %42 = sext i32 %41 to i64
  %43 = getelementptr inbounds i32, i32* %12, i64 %42
  store i32 %40, i32* %43, align 4
  br label %44

44:                                               ; preds = %34
  %45 = load i32, i32* %3, align 4
  %46 = add nsw i32 %45, 1
  store i32 %46, i32* %3, align 4
  br label %30

47:                                               ; preds = %30
  store i32 0, i32* %3, align 4
  br label %48

48:                                               ; preds = %141, %47
  %49 = load i32, i32* %3, align 4
  %50 = load i32, i32* %2, align 4
  %51 = icmp slt i32 %49, %50
  br i1 %51, label %52, label %144

52:                                               ; preds = %48
  store i32 0, i32* %7, align 4
  br label %53

53:                                               ; preds = %132, %52
  %54 = load i32, i32* %7, align 4
  %55 = load i32, i32* %3, align 4
  %56 = sext i32 %55 to i64
  %57 = getelementptr inbounds i32, i32* %12, i64 %56
  %58 = load i32, i32* %57, align 4
  %59 = icmp slt i32 %54, %58
  br i1 %59, label %60, label %135

60:                                               ; preds = %53
  %61 = load i32, i32* %3, align 4
  %62 = sext i32 %61 to i64
  %63 = getelementptr inbounds [300 x i8], [300 x i8]* %15, i64 %62
  %64 = load i32, i32* %7, align 4
  %65 = sext i32 %64 to i64
  %66 = getelementptr inbounds [300 x i8], [300 x i8]* %63, i64 0, i64 %65
  %67 = load i8, i8* %66, align 1
  %68 = sext i8 %67 to i32
  %69 = icmp eq i32 %68, 65
  br i1 %69, label %70, label %77

70:                                               ; preds = %60
  %71 = load i32, i32* %3, align 4
  %72 = sext i32 %71 to i64
  %73 = getelementptr inbounds [300 x i8], [300 x i8]* %15, i64 %72
  %74 = load i32, i32* %7, align 4
  %75 = sext i32 %74 to i64
  %76 = getelementptr inbounds [300 x i8], [300 x i8]* %73, i64 0, i64 %75
  store i8 84, i8* %76, align 1
  br label %131

77:                                               ; preds = %60
  %78 = load i32, i32* %3, align 4
  %79 = sext i32 %78 to i64
  %80 = getelementptr inbounds [300 x i8], [300 x i8]* %15, i64 %79
  %81 = load i32, i32* %7, align 4
  %82 = sext i32 %81 to i64
  %83 = getelementptr inbounds [300 x i8], [300 x i8]* %80, i64 0, i64 %82
  %84 = load i8, i8* %83, align 1
  %85 = sext i8 %84 to i32
  %86 = icmp eq i32 %85, 84
  br i1 %86, label %87, label %94

87:                                               ; preds = %77
  %88 = load i32, i32* %3, align 4
  %89 = sext i32 %88 to i64
  %90 = getelementptr inbounds [300 x i8], [300 x i8]* %15, i64 %89
  %91 = load i32, i32* %7, align 4
  %92 = sext i32 %91 to i64
  %93 = getelementptr inbounds [300 x i8], [300 x i8]* %90, i64 0, i64 %92
  store i8 65, i8* %93, align 1
  br label %130

94:                                               ; preds = %77
  %95 = load i32, i32* %3, align 4
  %96 = sext i32 %95 to i64
  %97 = getelementptr inbounds [300 x i8], [300 x i8]* %15, i64 %96
  %98 = load i32, i32* %7, align 4
  %99 = sext i32 %98 to i64
  %100 = getelementptr inbounds [300 x i8], [300 x i8]* %97, i64 0, i64 %99
  %101 = load i8, i8* %100, align 1
  %102 = sext i8 %101 to i32
  %103 = icmp eq i32 %102, 67
  br i1 %103, label %104, label %111

104:                                              ; preds = %94
  %105 = load i32, i32* %3, align 4
  %106 = sext i32 %105 to i64
  %107 = getelementptr inbounds [300 x i8], [300 x i8]* %15, i64 %106
  %108 = load i32, i32* %7, align 4
  %109 = sext i32 %108 to i64
  %110 = getelementptr inbounds [300 x i8], [300 x i8]* %107, i64 0, i64 %109
  store i8 71, i8* %110, align 1
  br label %129

111:                                              ; preds = %94
  %112 = load i32, i32* %3, align 4
  %113 = sext i32 %112 to i64
  %114 = getelementptr inbounds [300 x i8], [300 x i8]* %15, i64 %113
  %115 = load i32, i32* %7, align 4
  %116 = sext i32 %115 to i64
  %117 = getelementptr inbounds [300 x i8], [300 x i8]* %114, i64 0, i64 %116
  %118 = load i8, i8* %117, align 1
  %119 = sext i8 %118 to i32
  %120 = icmp eq i32 %119, 71
  br i1 %120, label %121, label %128

121:                                              ; preds = %111
  %122 = load i32, i32* %3, align 4
  %123 = sext i32 %122 to i64
  %124 = getelementptr inbounds [300 x i8], [300 x i8]* %15, i64 %123
  %125 = load i32, i32* %7, align 4
  %126 = sext i32 %125 to i64
  %127 = getelementptr inbounds [300 x i8], [300 x i8]* %124, i64 0, i64 %126
  store i8 67, i8* %127, align 1
  br label %128

128:                                              ; preds = %121, %111
  br label %129

129:                                              ; preds = %128, %104
  br label %130

130:                                              ; preds = %129, %87
  br label %131

131:                                              ; preds = %130, %70
  br label %132

132:                                              ; preds = %131
  %133 = load i32, i32* %7, align 4
  %134 = add nsw i32 %133, 1
  store i32 %134, i32* %7, align 4
  br label %53

135:                                              ; preds = %53
  %136 = load i32, i32* %3, align 4
  %137 = sext i32 %136 to i64
  %138 = getelementptr inbounds [300 x i8], [300 x i8]* %15, i64 %137
  %139 = getelementptr inbounds [300 x i8], [300 x i8]* %138, i64 0, i64 0
  %140 = call i32 (i8*, ...) @printf(i8* getelementptr inbounds ([4 x i8], [4 x i8]* @.str.1, i64 0, i64 0), i8* %139)
  br label %141

141:                                              ; preds = %135
  %142 = load i32, i32* %3, align 4
  %143 = add nsw i32 %142, 1
  store i32 %143, i32* %3, align 4
  br label %48

144:                                              ; preds = %48
  store i32 0, i32* %1, align 4
  %145 = load i8*, i8** %4, align 8
  call void @llvm.stackrestore(i8* %145)
  %146 = load i32, i32* %1, align 4
  ret i32 %146
}

declare dso_local i32 @__isoc99_scanf(i8*, ...) #1

; Function Attrs: nounwind
declare i8* @llvm.stacksave() #2

; Function Attrs: nounwind readonly
declare dso_local i64 @strlen(i8*) #3

declare dso_local i32 @printf(i8*, ...) #1

; Function Attrs: nounwind
declare void @llvm.stackrestore(i8*) #2


!llvm.module.flags = !{!0}
!llvm.ident = !{!1}

!0 = !{i32 1, !"wchar_size", i32 4}
!1 = !{!"clang version 10.0.0-4ubuntu1 "}
